; ModuleID = 'source-C-CXX/44/742.c'
source_filename = "source-C-CXX/44/742.c"
target datalayout = "e-m:e-p270:32:32-p271:32:32-p272:64:64-i64:64-f80:128-n8:16:32:64-S128"
target triple = "x86_64-pc-linux-gnu"

@.str = private unnamed_addr constant [3 x i8] c"%s\00", align 1
@.str.1 = private unnamed_addr constant [4 x i8] c"%d\0A\00", align 1

; Function Attrs: nofree nounwind sspstrong uwtable
define dso_local i32 @main() local_unnamed_addr #0 {
  %1 = alloca [50 x i8], align 16
  %2 = alloca [50 x i8], align 16
  %3 = getelementptr inbounds [50 x i8], [50 x i8]* %1, i64 0, i64 0
  call void @llvm.lifetime.start.p0i8(i64 50, i8* nonnull %3) #4
  %4 = getelementptr inbounds [50 x i8], [50 x i8]* %2, i64 0, i64 0
  call void @llvm.lifetime.start.p0i8(i64 50, i8* nonnull %4) #4
  %5 = call i32 (i8*, ...) @__isoc99_scanf(i8* getelementptr inbounds ([3 x i8], [3 x i8]* @.str, i64 0, i64 0), i8* nonnull %3)
  %6 = call i32 (i8*, ...) @__isoc99_scanf(i8* getelementptr inbounds ([3 x i8], [3 x i8]* @.str, i64 0, i64 0), i8* nonnull %4)
  %7 = call i64 @strlen(i8* noundef nonnull %3) #5
  %8 = trunc i64 %7 to i32
  %9 = call i64 @strlen(i8* noundef nonnull %4) #5
  %10 = trunc i64 %9 to i32
  %11 = add nsw i32 %8, -1
  %12 = icmp sgt i32 %10, 0
  %13 = icmp sgt i32 %8, 0
  %14 = select i1 %12, i1 %13, i1 false
  br i1 %14, label %15, label %52

15:                                               ; preds = %0
  %16 = zext i32 %11 to i64
  %17 = and i64 %7, 4294967295
  br label %18

18:                                               ; preds = %15, %39
  %19 = phi i32 [ %41, %39 ], [ 0, %15 ]
  %20 = load i8, i8* %3, align 16, !tbaa !5
  %21 = sext i32 %19 to i64
  %22 = getelementptr inbounds [50 x i8], [50 x i8]* %2, i64 0, i64 %21
  %23 = load i8, i8* %22, align 1, !tbaa !5
  %24 = icmp eq i8 %20, %23
  br i1 %24, label %25, label %39

25:                                               ; preds = %18, %49
  %26 = phi i64 [ %29, %49 ], [ 0, %18 ]
  %27 = phi i32 [ %50, %49 ], [ %19, %18 ]
  %28 = add nsw i32 %27, 1
  %29 = add nuw nsw i64 %26, 1
  %30 = getelementptr inbounds [50 x i8], [50 x i8]* %1, i64 0, i64 %29
  %31 = load i8, i8* %30, align 1, !tbaa !5
  %32 = sext i32 %28 to i64
  %33 = getelementptr inbounds [50 x i8], [50 x i8]* %2, i64 0, i64 %32
  %34 = load i8, i8* %33, align 1, !tbaa !5
  %35 = icmp eq i8 %31, %34
  br i1 %35, label %43, label %36

36:                                               ; preds = %25
  %37 = trunc i64 %26 to i32
  %38 = icmp eq i32 %11, %37
  br i1 %38, label %52, label %39

39:                                               ; preds = %49, %36, %18
  %40 = phi i32 [ %28, %36 ], [ %19, %18 ], [ %50, %49 ]
  %41 = add nsw i32 %40, 1
  %42 = icmp slt i32 %41, %10
  br i1 %42, label %18, label %52, !llvm.loop !8

43:                                               ; preds = %25
  %44 = icmp eq i64 %29, %16
  br i1 %44, label %45, label %49

45:                                               ; preds = %43
  %46 = sub nsw i32 %28, %8
  %47 = add nsw i32 %46, 1
  %48 = call i32 (i8*, ...) @printf(i8* nonnull dereferenceable(1) getelementptr inbounds ([4 x i8], [4 x i8]* @.str.1, i64 0, i64 0), i32 %47)
  br label %49

49:                                               ; preds = %45, %43
  %50 = phi i32 [ %47, %45 ], [ %28, %43 ]
  %51 = icmp eq i64 %29, %17
  br i1 %51, label %39, label %25, !llvm.loop !10

52:                                               ; preds = %39, %36, %0
  call void @llvm.lifetime.end.p0i8(i64 50, i8* nonnull %4) #4
  call void @llvm.lifetime.end.p0i8(i64 50, i8* nonnull %3) #4
  ret i32 0
}

; Function Attrs: argmemonly mustprogress nofree nosync nounwind willreturn
declare void @llvm.lifetime.start.p0i8(i64 immarg, i8* nocapture) #1

; Function Attrs: nofree nounwind
declare noundef i32 @__isoc99_scanf(i8* nocapture noundef readonly, ...) local_unnamed_addr #2

; Function Attrs: argmemonly mustprogress nofree nounwind readonly willreturn
declare i64 @strlen(i8* nocapture) local_unnamed_addr #3

; Function Attrs: nofree nounwind
declare noundef i32 @printf(i8* nocapture noundef readonly, ...) local_unnamed_addr #2

; Function Attrs: argmemonly mustprogress nofree nosync nounwind willreturn
declare void @llvm.lifetime.end.p0i8(i64 immarg, i8* nocapture) #1


!llvm.module.flags = !{!0, !1, !2, !3}
!llvm.ident = !{!4}

!0 = !{i32 1, !"wchar_size", i32 4}
!1 = !{i32 7, !"PIC Level", i32 2}
!2 = !{i32 7, !"PIE Level", i32 2}
!3 = !{i32 7, !"uwtable", i32 1}
!4 = !{!"clang version 13.0.0"}
!5 = !{!6, !6, i64 0}
!6 = !{!"omnipotent char", !7, i64 0}
!7 = !{!"Simple C/C++ TBAA"}
!8 = distinct !{!8, !9}
!9 = !{!"llvm.loop.mustprogress"}
!10 = distinct !{!10, !9}
